; Function Attrs: nounwind uwtable
define hidden range(i32 -1, 1) i32 @bufferevent_ratelim_init_(ptr noundef captures(none) initializes((456, 480)) %0) local_unnamed_addr #3 {
  %2 = getelementptr inbounds nuw i8, ptr %0, i64 472
  store ptr null, ptr %2, align 8
  %3 = getelementptr inbounds nuw i8, ptr %0, i64 456
  store i64 16384, ptr %3, align 8
  %4 = getelementptr inbounds nuw i8, ptr %0, i64 464
  store i64 16384, ptr %4, align 8
  %5 = getelementptr inbounds nuw i8, ptr %0, i64 256
  %6 = load ptr, ptr %5, align 8
  %7 = tail call i32 @evbuffer_set_max_read(ptr noundef %6, i64 noundef 16384) #10
  %.not = icmp ne i32 %7, 0
  %. = sext i1 %.not to i32
  ret i32 %.
}